target datalayout = "e-m:e-p270:32:32-p271:32:32-p272:64:64-i64:64-i128:128-f80:128-n8:16:32:64-S128"
target triple = "x86_64-pc-linux-gnu"

%"struct.Luau::CodeGen::BuiltinImplResult" = type { i32, i32 }
%"struct.Luau::CodeGen::IrOp" = type { i32 }

; Function Attrs: mustprogress nounwind uwtable
define linkonce_odr dso_local void @_ZN4Luau7CodeGen4IrOpC2Ev(ptr noundef nonnull align 4 dereferenceable(4) %0) unnamed_addr #1 comdat align 2 {
  %2 = alloca ptr, align 8
  store ptr %0, ptr %2, align 8, !tbaa !164
  %3 = load ptr, ptr %2, align 8
  %4 = load i32, ptr %3, align 4
  %5 = and i32 %4, -16
  %6 = or i32 %5, 0
  store i32 %6, ptr %3, align 4
  %7 = load i32, ptr %3, align 4
  %8 = and i32 %7, 15
  %9 = or i32 %8, 0
  store i32 %9, ptr %3, align 4
  ret void
}

; Function Attrs: mustprogress uwtable
define internal i64 @_ZN4Luau7CodeGenL26translateBuiltinBufferReadERNS0_9IrBuilderEiiiNS0_4IrOpES3_iiNS0_5IrCmdEiS4_(ptr noundef nonnull align 8 dereferenceable(752) %0, i32 noundef %1, i32 noundef %2, i32 noundef %3, i32 %4, i32 %5, i32 noundef %6, i32 noundef %7, i8 noundef zeroext %8, i32 noundef %9, i8 noundef zeroext %10) #2 {
  %12 = alloca %"struct.Luau::CodeGen::BuiltinImplResult", align 4
  %13 = alloca %"struct.Luau::CodeGen::IrOp", align 4
  %14 = alloca %"struct.Luau::CodeGen::IrOp", align 4
  %15 = alloca ptr, align 8
  %16 = alloca i32, align 4
  %17 = alloca i32, align 4
  %18 = alloca i32, align 4
  %19 = alloca i32, align 4
  %20 = alloca i32, align 4
  %21 = alloca i8, align 1
  %22 = alloca i32, align 4
  %23 = alloca i8, align 1
  %24 = alloca %"struct.Luau::CodeGen::IrOp", align 4
  %25 = alloca %"struct.Luau::CodeGen::IrOp", align 4
  %26 = alloca %"struct.Luau::CodeGen::IrOp", align 4
  %27 = alloca %"struct.Luau::CodeGen::IrOp", align 4
  %28 = alloca %"struct.Luau::CodeGen::IrOp", align 4
  %29 = alloca %"struct.Luau::CodeGen::IrOp", align 4
  %30 = alloca %"struct.Luau::CodeGen::IrOp", align 4
  %31 = alloca %"struct.Luau::CodeGen::IrOp", align 4
  %32 = alloca %"struct.Luau::CodeGen::IrOp", align 4
  %33 = alloca %"struct.Luau::CodeGen::IrOp", align 4
  %34 = alloca %"struct.Luau::CodeGen::IrOp", align 4
  %35 = alloca %"struct.Luau::CodeGen::IrOp", align 4
  %36 = alloca %"struct.Luau::CodeGen::IrOp", align 4
  %37 = alloca %"struct.Luau::CodeGen::IrOp", align 4
  %38 = getelementptr inbounds nuw %"struct.Luau::CodeGen::IrOp", ptr %13, i32 0, i32 0
  store i32 %4, ptr %38, align 4
  %39 = getelementptr inbounds nuw %"struct.Luau::CodeGen::IrOp", ptr %14, i32 0, i32 0
  store i32 %5, ptr %39, align 4
  store ptr %0, ptr %15, align 8, !tbaa !20
  store i32 %1, ptr %16, align 4, !tbaa !22
  store i32 %2, ptr %17, align 4, !tbaa !22
  store i32 %3, ptr %18, align 4, !tbaa !22
  store i32 %6, ptr %19, align 4, !tbaa !22
  store i32 %7, ptr %20, align 4, !tbaa !22
  store i8 %8, ptr %21, align 1, !tbaa !32
  store i32 %9, ptr %22, align 4, !tbaa !22
  store i8 %10, ptr %23, align 1, !tbaa !32
  %40 = load i32, ptr %16, align 4, !tbaa !22
  %41 = icmp slt i32 %40, 2
  br i1 %41, label %45, label %42

42:                                               ; preds = %11
  %43 = load i32, ptr %19, align 4, !tbaa !22
  %44 = icmp sgt i32 %43, 1
  br i1 %44, label %45, label %48

45:                                               ; preds = %42, %11
  %46 = getelementptr inbounds nuw %"struct.Luau::CodeGen::BuiltinImplResult", ptr %12, i32 0, i32 0
  store i32 0, ptr %46, align 4, !tbaa !24
  %47 = getelementptr inbounds nuw %"struct.Luau::CodeGen::BuiltinImplResult", ptr %12, i32 0, i32 1
  store i32 -1, ptr %47, align 4, !tbaa !27
  br label %106

48:                                               ; preds = %42
  call void @llvm.lifetime.start.p0(i64 4, ptr %24) #11
  call void @_ZN4Luau7CodeGen4IrOpC2Ev(ptr noundef nonnull align 4 dereferenceable(4) %24)
  call void @llvm.lifetime.start.p0(i64 4, ptr %25) #11
  call void @_ZN4Luau7CodeGen4IrOpC2Ev(ptr noundef nonnull align 4 dereferenceable(4) %25)
  %49 = load ptr, ptr %15, align 8, !tbaa !20
  %50 = load i32, ptr %16, align 4, !tbaa !22
  %51 = load i32, ptr %18, align 4, !tbaa !22
  call void @llvm.memcpy.p0.p0.i64(ptr align 4 %26, ptr align 4 %13, i64 4, i1 false), !tbaa.struct !28
  call void @llvm.memcpy.p0.p0.i64(ptr align 4 %27, ptr align 4 %14, i64 4, i1 false), !tbaa.struct !28
  %52 = load i32, ptr %22, align 4, !tbaa !22
  %53 = load i32, ptr %20, align 4, !tbaa !22
  %54 = getelementptr inbounds nuw %"struct.Luau::CodeGen::IrOp", ptr %26, i32 0, i32 0
  %55 = load i32, ptr %54, align 4
  %56 = getelementptr inbounds nuw %"struct.Luau::CodeGen::IrOp", ptr %27, i32 0, i32 0
  %57 = load i32, ptr %56, align 4
  call void @_ZN4Luau7CodeGenL33translateBufferArgsAndCheckBoundsERNS0_9IrBuilderEiiNS0_4IrOpES3_iiRS3_S4_(ptr noundef nonnull align 8 dereferenceable(752) %49, i32 noundef %50, i32 noundef %51, i32 %55, i32 %57, i32 noundef %52, i32 noundef %53, ptr noundef nonnull align 4 dereferenceable(4) %24, ptr noundef nonnull align 4 dereferenceable(4) %25)
  call void @llvm.lifetime.start.p0(i64 4, ptr %28) #11
  %58 = load ptr, ptr %15, align 8, !tbaa !20
  %59 = load i8, ptr %21, align 1, !tbaa !32
  call void @llvm.memcpy.p0.p0.i64(ptr align 4 %29, ptr align 4 %24, i64 4, i1 false), !tbaa.struct !28
  call void @llvm.memcpy.p0.p0.i64(ptr align 4 %30, ptr align 4 %25, i64 4, i1 false), !tbaa.struct !28
  %60 = getelementptr inbounds nuw %"struct.Luau::CodeGen::IrOp", ptr %29, i32 0, i32 0
  %61 = load i32, ptr %60, align 4
  %62 = getelementptr inbounds nuw %"struct.Luau::CodeGen::IrOp", ptr %30, i32 0, i32 0
  %63 = load i32, ptr %62, align 4
  %64 = call i32 @_ZN4Luau7CodeGen9IrBuilder4instENS0_5IrCmdENS0_4IrOpES3_(ptr noundef nonnull align 8 dereferenceable(752) %58, i8 noundef zeroext %59, i32 %61, i32 %63)
  %65 = getelementptr inbounds nuw %"struct.Luau::CodeGen::IrOp", ptr %28, i32 0, i32 0
  store i32 %64, ptr %65, align 4
  %66 = load ptr, ptr %15, align 8, !tbaa !20
  %67 = load ptr, ptr %15, align 8, !tbaa !20
  %68 = load i32, ptr %17, align 4, !tbaa !22
  %69 = trunc i32 %68 to i8
  %70 = call i32 @_ZN4Luau7CodeGen9IrBuilder5vmRegEh(ptr noundef nonnull align 8 dereferenceable(752) %67, i8 noundef zeroext %69)
  %71 = getelementptr inbounds nuw %"struct.Luau::CodeGen::IrOp", ptr %31, i32 0, i32 0
  store i32 %70, ptr %71, align 4
  %72 = load i8, ptr %23, align 1, !tbaa !32
  %73 = icmp eq i8 %72, 0
  br i1 %73, label %74, label %75

74:                                               ; preds = %48
  call void @llvm.memcpy.p0.p0.i64(ptr align 4 %32, ptr align 4 %28, i64 4, i1 false), !tbaa.struct !28
  br label %82

75:                                               ; preds = %48
  %76 = load ptr, ptr %15, align 8, !tbaa !20
  %77 = load i8, ptr %23, align 1, !tbaa !32
  call void @llvm.memcpy.p0.p0.i64(ptr align 4 %33, ptr align 4 %28, i64 4, i1 false), !tbaa.struct !28
  %78 = getelementptr inbounds nuw %"struct.Luau::CodeGen::IrOp", ptr %33, i32 0, i32 0
  %79 = load i32, ptr %78, align 4
  %80 = call i32 @_ZN4Luau7CodeGen9IrBuilder4instENS0_5IrCmdENS0_4IrOpE(ptr noundef nonnull align 8 dereferenceable(752) %76, i8 noundef zeroext %77, i32 %79)
  %81 = getelementptr inbounds nuw %"struct.Luau::CodeGen::IrOp", ptr %32, i32 0, i32 0
  store i32 %80, ptr %81, align 4
  br label %82

82:                                               ; preds = %75, %74
  %83 = getelementptr inbounds nuw %"struct.Luau::CodeGen::IrOp", ptr %31, i32 0, i32 0
  %84 = load i32, ptr %83, align 4
  %85 = getelementptr inbounds nuw %"struct.Luau::CodeGen::IrOp", ptr %32, i32 0, i32 0
  %86 = load i32, ptr %85, align 4
  %87 = call i32 @_ZN4Luau7CodeGen9IrBuilder4instENS0_5IrCmdENS0_4IrOpES3_(ptr noundef nonnull align 8 dereferenceable(752) %66, i8 noundef zeroext 15, i32 %84, i32 %86)
  %88 = getelementptr inbounds nuw %"struct.Luau::CodeGen::IrOp", ptr %34, i32 0, i32 0
  store i32 %87, ptr %88, align 4
  %89 = load ptr, ptr %15, align 8, !tbaa !20
  %90 = load ptr, ptr %15, align 8, !tbaa !20
  %91 = load i32, ptr %17, align 4, !tbaa !22
  %92 = trunc i32 %91 to i8
  %93 = call i32 @_ZN4Luau7CodeGen9IrBuilder5vmRegEh(ptr noundef nonnull align 8 dereferenceable(752) %90, i8 noundef zeroext %92)
  %94 = getelementptr inbounds nuw %"struct.Luau::CodeGen::IrOp", ptr %35, i32 0, i32 0
  store i32 %93, ptr %94, align 4
  %95 = load ptr, ptr %15, align 8, !tbaa !20
  %96 = call i32 @_ZN4Luau7CodeGen9IrBuilder8constTagEh(ptr noundef nonnull align 8 dereferenceable(752) %95, i8 noundef zeroext 3)
  %97 = getelementptr inbounds nuw %"struct.Luau::CodeGen::IrOp", ptr %36, i32 0, i32 0
  store i32 %96, ptr %97, align 4
  %98 = getelementptr inbounds nuw %"struct.Luau::CodeGen::IrOp", ptr %35, i32 0, i32 0
  %99 = load i32, ptr %98, align 4
  %100 = getelementptr inbounds nuw %"struct.Luau::CodeGen::IrOp", ptr %36, i32 0, i32 0
  %101 = load i32, ptr %100, align 4
  %102 = call i32 @_ZN4Luau7CodeGen9IrBuilder4instENS0_5IrCmdENS0_4IrOpES3_(ptr noundef nonnull align 8 dereferenceable(752) %89, i8 noundef zeroext 12, i32 %99, i32 %101)
  %103 = getelementptr inbounds nuw %"struct.Luau::CodeGen::IrOp", ptr %37, i32 0, i32 0
  store i32 %102, ptr %103, align 4
  %104 = getelementptr inbounds nuw %"struct.Luau::CodeGen::BuiltinImplResult", ptr %12, i32 0, i32 0
  store i32 2, ptr %104, align 4, !tbaa !24
  %105 = getelementptr inbounds nuw %"struct.Luau::CodeGen::BuiltinImplResult", ptr %12, i32 0, i32 1
  store i32 1, ptr %105, align 4, !tbaa !27
  call void @llvm.lifetime.end.p0(i64 4, ptr %28) #11
  call void @llvm.lifetime.end.p0(i64 4, ptr %25) #11
  call void @llvm.lifetime.end.p0(i64 4, ptr %24) #11
  br label %106

106:                                              ; preds = %82, %45
  %107 = load i64, ptr %12, align 4
  ret i64 %107
}