; Function Attrs: mustprogress uwtable
define internal fastcc range(i64 -4294967296, 4294967299) i64 @_ZN4Luau7CodeGenL26translateBuiltinBufferReadERNS0_9IrBuilderEiiiNS0_4IrOpES3_iiNS0_5IrCmdEiS4_(ptr noundef nonnull align 8 dereferenceable(752) %0, i32 noundef range(i32 0, -1) %1, i32 noundef %2, i32 noundef %3, i32 %4, i32 %5, i32 noundef %6, i32 noundef %7, i8 noundef zeroext range(i8 -121, -110) %8, i32 noundef range(i32 1, 9) %9, i8 noundef zeroext range(i8 0, 65) %10) unnamed_addr #0 {
  %12 = alloca %"struct.Luau::CodeGen::IrOp", align 4
  %13 = alloca %"struct.Luau::CodeGen::IrOp", align 4
  %14 = icmp slt i32 %1, 2
  %15 = icmp sgt i32 %6, 1
  %or.cond = or i1 %14, %15
  br i1 %or.cond, label %28, label %16

16:                                               ; preds = %11
  call void @llvm.lifetime.start.p0(i64 4, ptr nonnull %12) #5
  call void @llvm.lifetime.start.p0(i64 4, ptr nonnull %13) #5
  call fastcc void @_ZN4Luau7CodeGenL33translateBufferArgsAndCheckBoundsERNS0_9IrBuilderEiiNS0_4IrOpES3_iiRS3_S4_(ptr noundef nonnull align 8 dereferenceable(752) %0, i32 noundef %1, i32 noundef %3, i32 %4, i32 %5, i32 noundef %9, i32 noundef %7, ptr noundef nonnull align 4 dereferenceable(4) %12, ptr noundef nonnull align 4 dereferenceable(4) %13)
  %.sroa.09.0.copyload = load i32, ptr %12, align 4, !tbaa !29
  %.sroa.08.0.copyload = load i32, ptr %13, align 4, !tbaa !29
  %17 = tail call i32 @_ZN4Luau7CodeGen9IrBuilder4instENS0_5IrCmdENS0_4IrOpES3_(ptr noundef nonnull align 8 dereferenceable(752) %0, i8 noundef zeroext %8, i32 %.sroa.09.0.copyload, i32 %.sroa.08.0.copyload)
  %18 = trunc i32 %2 to i8
  %19 = tail call i32 @_ZN4Luau7CodeGen9IrBuilder5vmRegEh(ptr noundef nonnull align 8 dereferenceable(752) %0, i8 noundef zeroext %18)
  %20 = icmp eq i8 %10, 0
  br i1 %20, label %23, label %21

21:                                               ; preds = %16
  %22 = tail call i32 @_ZN4Luau7CodeGen9IrBuilder4instENS0_5IrCmdENS0_4IrOpE(ptr noundef nonnull align 8 dereferenceable(752) %0, i8 noundef zeroext %10, i32 %17)
  br label %23

23:                                               ; preds = %16, %21
  %.sroa.06.0 = phi i32 [ %22, %21 ], [ %17, %16 ]
  %24 = tail call i32 @_ZN4Luau7CodeGen9IrBuilder4instENS0_5IrCmdENS0_4IrOpES3_(ptr noundef nonnull align 8 dereferenceable(752) %0, i8 noundef zeroext 15, i32 %19, i32 %.sroa.06.0)
  %25 = tail call i32 @_ZN4Luau7CodeGen9IrBuilder5vmRegEh(ptr noundef nonnull align 8 dereferenceable(752) %0, i8 noundef zeroext %18)
  %26 = tail call i32 @_ZN4Luau7CodeGen9IrBuilder8constTagEh(ptr noundef nonnull align 8 dereferenceable(752) %0, i8 noundef zeroext 3)
  %27 = tail call i32 @_ZN4Luau7CodeGen9IrBuilder4instENS0_5IrCmdENS0_4IrOpES3_(ptr noundef nonnull align 8 dereferenceable(752) %0, i8 noundef zeroext 12, i32 %25, i32 %26)
  call void @llvm.lifetime.end.p0(i64 4, ptr nonnull %13) #5
  call void @llvm.lifetime.end.p0(i64 4, ptr nonnull %12) #5
  br label %28

28:                                               ; preds = %11, %23
  %.sroa.033.0.insert.insert = phi i64 [ 4294967298, %23 ], [ -4294967296, %11 ]
  ret i64 %.sroa.033.0.insert.insert
}